(lp0
(lp1
(lp2
S'https://github.com/ygd-project/y'
p3
aaF0.14285714285714285
aa(lp4
(lp5
S'https://github.com/ygd-project/x'
p6
aaF0.14285714285714285
aa(lp7
(lp8
S'https://github.com/ygd-project/z'
p9
aaF0.14285714285714285
aa(lp10
(lp11
S'https://github.com/ygd-project/a'
p12
aaF0.42857142857142855
aa(lp13
(lp14
S'https://github.com/ygd-project/c'
p15
aaF0.14285714285714285
aa(lp16
(lp17
S'https://github.com/ygd-project/b'
p18
aaF0.8571428571428571
aa(lp19
(lp20
S'https://github.com/ygd-project/e'
p21
aaF0.14285714285714285
aa(lp22
(lp23
S'https://github.com/ygd-project/d'
p24
aaF0.2857142857142857
aa(lp25
(lp26
g3
ag9
aaF0.14285714285714285
aa(lp27
(lp28
g3
ag18
aaF0.14285714285714285
aa(lp29
(lp30
g6
ag18
aaF0.14285714285714285
aa(lp31
(lp32
g6
ag21
aaF0.14285714285714285
aa(lp33
(lp34
g9
ag18
aaF0.14285714285714285
aa(lp35
(lp36
g12
ag18
aaF0.2857142857142857
aa(lp37
(lp38
g12
ag24
aaF0.14285714285714285
aa(lp39
(lp40
g15
ag18
aaF0.14285714285714285
aa(lp41
(lp42
g15
ag24
aaF0.14285714285714285
aa(lp43
(lp44
g18
ag21
aaF0.14285714285714285
aa(lp45
(lp46
g18
ag24
aaF0.2857142857142857
aa(lp47
(lp48
g3
ag9
ag18
aaF0.14285714285714285
aa(lp49
(lp50
g6
ag18
ag21
aaF0.14285714285714285
aa(lp51
(lp52
g12
ag18
ag24
aaF0.14285714285714285
aa(lp53
(lp54
g15
ag18
ag24
aaF0.14285714285714285
aa.